Certificate:
    Data:
        Version: 3 (0x2)
        Serial Number: 2 (0x2)
    Signature Algorithm: sha1WithRSAEncryption
        Issuer: CN=Main Authority/emailAddress=auth@auth.com
        Validity
            Not Before: Jun 12 08:11:39 2019 GMT
            Not After : Jun 11 08:11:39 2020 GMT
        Subject: CN=default/emailAddress=default@default.com
        Subject Public Key Info:
            Public Key Algorithm: rsaEncryption
                Public-Key: (2048 bit)
                Modulus:
                    00:f1:29:0f:5b:2d:9b:64:7e:6d:c4:45:d9:e3:bb:
                    11:ca:2f:e1:e8:d0:75:3f:fe:64:ea:98:18:49:3d:
                    b0:5c:57:77:c0:2a:0b:84:7a:5c:88:59:19:c3:3e:
                    1e:f5:1a:90:8e:f9:65:17:93:e9:c9:a6:e9:39:c4:
                    2a:e5:28:38:3c:a0:f3:41:f6:91:f0:4f:88:c9:e5:
                    0d:bb:5d:b1:3e:8f:3c:2e:81:3e:c8:de:97:a8:4f:
                    34:11:a5:3b:5f:1e:5a:e4:9e:eb:55:d3:8b:c2:47:
                    54:40:2b:91:ec:24:4f:1d:f7:01:87:c1:d6:99:1c:
                    82:90:3b:fc:fe:06:28:b8:a8:62:b2:03:3a:af:4e:
                    8e:3b:ca:65:5f:01:56:00:04:5a:78:c6:69:03:95:
                    5b:59:91:7f:b0:92:4d:2b:04:fb:d0:8f:bf:a6:dd:
                    91:6c:93:e4:b8:0b:4f:73:0a:b7:bd:3d:73:f2:e7:
                    d3:2f:31:d2:aa:7c:b1:20:8c:4e:e5:ce:f7:42:13:
                    49:f5:8b:68:80:94:66:27:72:07:2e:a7:bd:9c:0b:
                    9d:a3:c9:72:fd:35:5b:bb:ff:6b:ee:d8:ce:f3:3b:
                    be:29:d1:8a:23:c9:ac:8b:eb:23:5a:a3:e6:f3:18:
                    32:21:c4:eb:8f:95:b6:b2:15:2b:a2:b1:0a:73:8d:
                    2a:35
                Exponent: 65537 (0x10001)
        X509v3 extensions:
            X509v3 Subject Key Identifier: 
                1D:59:50:7B:E6:E9:78:08:92:C9:4F:6D:C8:90:6F:BA:85:16:D3:A6
            X509v3 Authority Key Identifier: 
                keyid:F7:86:C9:75:C1:6F:A9:9D:EF:73:C4:4D:27:34:37:C3:D7:7C:8D:85
                DirName:/CN=Main Authority/emailAddress=auth@auth.com
                serial:01

            X509v3 Basic Constraints: 
                CA:TRUE
            X509v3 CRL Distribution Points: 

                Full Name:
                  URI:http://www.example.com/example_ca.crl

            X509v3 Key Usage: 
                Certificate Sign, CRL Sign
            X509v3 Subject Alternative Name: 
                email:default@default.com
    Signature Algorithm: sha1WithRSAEncryption
         54:b8:d9:c5:20:16:96:03:79:88:64:11:d1:d9:ba:01:42:df:
         f7:c7:d4:67:df:e3:14:21:a4:8e:b0:1f:9a:c1:94:8c:94:3f:
         a0:47:43:2e:23:af:73:df:97:24:d4:9c:ef:35:99:06:6e:4c:
         72:f7:0e:98:fe:06:9a:dd:81:1f:04:97:30:c6:c7:5f:ac:45:
         80:a4:33:1e:74:23:43:6b:4d:6a:b7:19:ce:b4:f4:35:6e:75:
         24:99:f0:1d:95:8d:ad:bc:65:c6:6f:31:12:f2:b4:44:fc:54:
         2c:18:02:1a:7e:07:72:07:d1:13:18:ca:49:75:5f:fe:6d:bd:
         63:71:38:77:0b:44:52:57:1f:c8:b8:98:e1:60:05:85:5e:7e:
         d9:59:f2:44:8a:11:c4:41:dc:bf:99:af:cd:39:82:89:21:53:
         76:97:d8:6c:e9:49:0d:97:fe:bc:f3:2d:99:4b:72:7a:5f:fc:
         20:d3:39:b1:6f:c4:5f:f9:e0:9e:7e:0a:f8:68:66:24:6f:11:
         bb:9c:66:5d:1a:10:05:b5:b9:91:04:94:d4:cc:12:db:f6:c0:
         35:75:3a:24:8c:0a:57:38:e7:e4:a7:7e:c7:cd:56:9a:ec:de:
         54:c1:10:e1:c3:d9:6e:95:9f:3f:75:e4:f3:37:6c:07:99:72:
         5a:c6:e4:ae
-----BEGIN CERTIFICATE-----
MIID3zCCAsegAwIBAgIBAjANBgkqhkiG9w0BAQUFADA3MRcwFQYDVQQDEw5NYWlu
IEF1dGhvcml0eTEcMBoGCSqGSIb3DQEJARYNYXV0aEBhdXRoLmNvbTAeFw0xOTA2
MTIwODExMzlaFw0yMDA2MTEwODExMzlaMDYxEDAOBgNVBAMTB2RlZmF1bHQxIjAg
BgkqhkiG9w0BCQEWE2RlZmF1bHRAZGVmYXVsdC5jb20wggEiMA0GCSqGSIb3DQEB
AQUAA4IBDwAwggEKAoIBAQDxKQ9bLZtkfm3ERdnjuxHKL+Ho0HU//mTqmBhJPbBc
V3fAKguEelyIWRnDPh71GpCO+WUXk+nJpuk5xCrlKDg8oPNB9pHwT4jJ5Q27XbE+
jzwugT7I3peoTzQRpTtfHlrknutV04vCR1RAK5HsJE8d9wGHwdaZHIKQO/z+Bii4
qGKyAzqvTo47ymVfAVYABFp4xmkDlVtZkX+wkk0rBPvQj7+m3ZFsk+S4C09zCre9
PXPy59MvMdKqfLEgjE7lzvdCE0n1i2iAlGYncgcup72cC52jyXL9NVu7/2vu2M7z
O74p0YojyayL6yNao+bzGDIhxOuPlbayFSuisQpzjSo1AgMBAAGjgfYwgfMwHQYD
VR0OBBYEFB1ZUHvm6XgIkslPbciQb7qFFtOmMF8GA1UdIwRYMFaAFPeGyXXBb6md
73PETSc0N8PXfI2FoTukOTA3MRcwFQYDVQQDEw5NYWluIEF1dGhvcml0eTEcMBoG
CSqGSIb3DQEJARYNYXV0aEBhdXRoLmNvbYIBATAMBgNVHRMEBTADAQH/MDYGA1Ud
HwQvMC0wK6ApoCeGJWh0dHA6Ly93d3cuZXhhbXBsZS5jb20vZXhhbXBsZV9jYS5j
cmwwCwYDVR0PBAQDAgEGMB4GA1UdEQQXMBWBE2RlZmF1bHRAZGVmYXVsdC5jb20w
DQYJKoZIhvcNAQEFBQADggEBAFS42cUgFpYDeYhkEdHZugFC3/fH1Gff4xQhpI6w
H5rBlIyUP6BHQy4jr3PflyTUnO81mQZuTHL3Dpj+BprdgR8ElzDGx1+sRYCkMx50
I0NrTWq3Gc609DVudSSZ8B2Vja28ZcZvMRLytET8VCwYAhp+B3IH0RMYykl1X/5t
vWNxOHcLRFJXH8i4mOFgBYVeftlZ8kSKEcRB3L+Zr805gokhU3aX2GzpSQ2X/rzz
LZlLcnpf/CDTObFvxF/54J5+CvhoZiRvEbucZl0aEAW1uZEElNTMEtv2wDV1OiSM
Clc45+SnfsfNVprs3lTBEOHD2W6Vnz915PM3bAeZclrG5K4=
-----END CERTIFICATE-----
