Certificate:
    Data:
        Version: 3 (0x2)
        Serial Number: 3 (0x3)
    Signature Algorithm: sha1WithRSAEncryption
        Issuer: CN=Main Authority/emailAddress=auth@auth.com
        Validity
            Not Before: Jun 12 08:12:45 2019 GMT
            Not After : Jun 11 08:12:45 2020 GMT
        Subject: CN=luka/emailAddress=luka@luka.com
        Subject Public Key Info:
            Public Key Algorithm: rsaEncryption
                Public-Key: (2048 bit)
                Modulus:
                    00:c1:11:05:56:d3:ab:9c:fe:36:c5:bf:9f:95:20:
                    24:9c:2a:56:8e:87:4e:03:16:e0:8d:97:8c:ac:80:
                    7b:0e:79:61:95:bc:99:75:a2:49:63:a7:2f:6f:02:
                    72:d3:f1:dc:26:01:73:be:af:4c:c4:64:5e:f5:fb:
                    1c:2b:15:7d:80:32:a6:82:1d:16:43:d1:7b:37:68:
                    aa:64:d8:63:0a:d8:12:ea:d3:5d:b0:b0:ac:7c:89:
                    94:e5:46:13:b5:31:c8:4c:8f:1f:c3:37:56:e7:ea:
                    9c:ea:40:d8:72:b6:a0:40:cd:b0:f3:d1:fc:2d:53:
                    2f:f7:bf:67:d1:31:0e:c1:bd:4d:56:da:48:79:b2:
                    90:9e:37:8f:62:bc:0d:6e:f0:3c:4e:7a:f2:48:21:
                    d0:19:c4:51:81:05:b2:81:20:7e:18:d6:05:69:0e:
                    f7:52:3d:fc:19:35:8f:fb:16:ff:88:41:59:00:8f:
                    18:5d:a9:33:c6:c0:d7:64:9e:e3:5c:ea:7c:ea:d5:
                    13:a8:ac:80:f3:00:9d:c6:6e:88:75:aa:24:a6:be:
                    85:10:49:0c:b5:57:02:31:d2:d1:c2:1e:28:02:d5:
                    ab:9e:e9:57:91:97:5d:5a:39:c1:57:87:08:0a:8f:
                    b4:46:8e:f3:b0:07:56:85:e9:80:e3:6a:ea:49:c4:
                    f5:d5
                Exponent: 65537 (0x10001)
        X509v3 extensions:
            X509v3 Subject Key Identifier: 
                0F:C5:AB:30:AC:64:FA:82:17:AD:07:C5:2E:0B:4C:3D:15:1F:88:15
            X509v3 Authority Key Identifier: 
                keyid:F7:86:C9:75:C1:6F:A9:9D:EF:73:C4:4D:27:34:37:C3:D7:7C:8D:85
                DirName:/CN=Main Authority/emailAddress=auth@auth.com
                serial:01

            X509v3 Basic Constraints: 
                CA:TRUE
            X509v3 CRL Distribution Points: 

                Full Name:
                  URI:http://www.example.com/example_ca.crl

            X509v3 Key Usage: 
                Certificate Sign, CRL Sign
            X509v3 Subject Alternative Name: 
                email:luka@luka.com
    Signature Algorithm: sha1WithRSAEncryption
         7b:6e:14:e4:74:de:60:96:01:21:25:08:e8:b3:54:d0:d8:20:
         18:5c:3b:35:28:38:c5:b8:71:c4:51:d6:0f:37:7f:82:7a:b6:
         a6:17:cd:aa:b6:24:bb:e7:d1:8b:5a:b2:d1:71:51:3f:cf:8f:
         a7:62:c8:e1:65:c4:3d:31:eb:49:f1:a7:79:a7:e8:c7:7c:71:
         16:59:92:f0:49:92:7a:2b:9a:46:bd:45:7d:16:42:49:ca:f1:
         de:96:46:a1:1d:79:94:1f:5e:90:68:f1:e8:54:57:e8:20:e5:
         7d:e8:ab:a3:55:42:2f:1f:b4:d8:3f:47:66:02:26:f2:4c:30:
         3a:cf:ec:2a:e7:8f:64:54:bd:4d:bf:74:df:b0:e0:0f:f4:fc:
         98:c2:51:6b:08:c5:92:2b:ca:64:4a:2f:1d:0f:34:21:c4:d1:
         14:ed:59:57:4e:26:47:7f:0b:94:c2:bf:da:eb:cf:04:d4:b4:
         67:3f:6e:65:b3:67:19:36:29:80:be:65:78:06:6e:93:c4:5e:
         c7:0b:6b:12:d9:87:09:0e:fa:ff:89:9d:22:3a:67:59:88:a0:
         d2:9a:8f:ca:d8:24:2d:aa:82:f2:92:e2:3b:ed:ad:c5:03:8b:
         35:51:5e:4d:bb:3b:05:77:3e:76:07:1e:c2:6b:8c:df:ea:a1:
         47:8a:74:52
-----BEGIN CERTIFICATE-----
MIID0DCCArigAwIBAgIBAzANBgkqhkiG9w0BAQUFADA3MRcwFQYDVQQDEw5NYWlu
IEF1dGhvcml0eTEcMBoGCSqGSIb3DQEJARYNYXV0aEBhdXRoLmNvbTAeFw0xOTA2
MTIwODEyNDVaFw0yMDA2MTEwODEyNDVaMC0xDTALBgNVBAMTBGx1a2ExHDAaBgkq
hkiG9w0BCQEWDWx1a2FAbHVrYS5jb20wggEiMA0GCSqGSIb3DQEBAQUAA4IBDwAw
ggEKAoIBAQDBEQVW06uc/jbFv5+VICScKlaOh04DFuCNl4ysgHsOeWGVvJl1oklj
py9vAnLT8dwmAXO+r0zEZF71+xwrFX2AMqaCHRZD0Xs3aKpk2GMK2BLq012wsKx8
iZTlRhO1MchMjx/DN1bn6pzqQNhytqBAzbDz0fwtUy/3v2fRMQ7BvU1W2kh5spCe
N49ivA1u8DxOevJIIdAZxFGBBbKBIH4Y1gVpDvdSPfwZNY/7Fv+IQVkAjxhdqTPG
wNdknuNc6nzq1ROorIDzAJ3Gboh1qiSmvoUQSQy1VwIx0tHCHigC1aue6VeRl11a
OcFXhwgKj7RGjvOwB1aF6YDjaupJxPXVAgMBAAGjgfAwge0wHQYDVR0OBBYEFA/F
qzCsZPqCF60HxS4LTD0VH4gVMF8GA1UdIwRYMFaAFPeGyXXBb6md73PETSc0N8PX
fI2FoTukOTA3MRcwFQYDVQQDEw5NYWluIEF1dGhvcml0eTEcMBoGCSqGSIb3DQEJ
ARYNYXV0aEBhdXRoLmNvbYIBATAMBgNVHRMEBTADAQH/MDYGA1UdHwQvMC0wK6Ap
oCeGJWh0dHA6Ly93d3cuZXhhbXBsZS5jb20vZXhhbXBsZV9jYS5jcmwwCwYDVR0P
BAQDAgEGMBgGA1UdEQQRMA+BDWx1a2FAbHVrYS5jb20wDQYJKoZIhvcNAQEFBQAD
ggEBAHtuFOR03mCWASElCOizVNDYIBhcOzUoOMW4ccRR1g83f4J6tqYXzaq2JLvn
0YtastFxUT/Pj6diyOFlxD0x60nxp3mn6Md8cRZZkvBJknormka9RX0WQknK8d6W
RqEdeZQfXpBo8ehUV+gg5X3oq6NVQi8ftNg/R2YCJvJMMDrP7Crnj2RUvU2/dN+w
4A/0/JjCUWsIxZIrymRKLx0PNCHE0RTtWVdOJkd/C5TCv9rrzwTUtGc/bmWzZxk2
KYC+ZXgGbpPEXscLaxLZhwkO+v+JnSI6Z1mIoNKaj8rYJC2qgvKS4jvtrcUDizVR
Xk27OwV3PnYHHsJrjN/qoUeKdFI=
-----END CERTIFICATE-----
