Certificate:
    Data:
        Version: 3 (0x2)
        Serial Number: 1 (0x1)
    Signature Algorithm: sha1WithRSAEncryption
        Issuer: CN=Main Authority/emailAddress=auth@auth.com
        Validity
            Not Before: Jun 12 08:10:11 2019 GMT
            Not After : Jun 11 08:10:11 2020 GMT
        Subject: CN=Main Authority/emailAddress=auth@auth.com
        Subject Public Key Info:
            Public Key Algorithm: rsaEncryption
                Public-Key: (2048 bit)
                Modulus:
                    00:c6:93:79:78:9b:eb:2d:95:df:61:5a:7d:7a:aa:
                    2e:83:eb:85:58:41:b4:f1:eb:a9:bb:3d:4f:c9:d4:
                    3a:e4:66:de:96:4d:58:a6:c9:1d:c3:6e:b2:9f:94:
                    7c:3d:f4:a3:5f:d8:fd:52:a3:23:ab:67:7d:22:66:
                    7d:6a:ce:c8:15:22:a3:a1:a2:31:d1:00:83:8f:bc:
                    41:0b:64:f6:59:3f:6c:25:72:19:c1:a1:e1:6f:e5:
                    ee:99:8b:d1:cc:22:36:a8:50:24:75:10:bc:5b:71:
                    ea:16:60:08:d6:57:f3:ab:a1:b1:0d:75:cf:18:39:
                    fa:78:2e:ca:2e:81:f7:4e:b0:36:ed:19:b2:3d:a6:
                    f7:0f:bc:3b:f7:58:4b:c1:8c:1a:4a:ce:e5:a0:4a:
                    d8:79:51:e9:f1:16:0b:1a:d7:50:b5:9b:30:c1:05:
                    6e:27:e0:02:b5:5b:1c:2f:69:5d:1f:02:51:88:d9:
                    14:78:5d:6b:65:c9:a3:f3:fe:17:59:02:5f:6a:51:
                    e4:29:8b:17:e3:e3:ff:87:ba:82:7e:a9:78:09:03:
                    34:9e:bf:2b:cd:ea:d4:aa:a9:f5:db:a4:8c:b8:81:
                    92:b1:a2:34:71:1b:4a:56:4a:ea:da:c4:57:31:aa:
                    48:24:75:a2:da:91:d5:90:f7:ea:43:78:5c:f0:94:
                    c0:d7
                Exponent: 65537 (0x10001)
        X509v3 extensions:
            X509v3 Subject Key Identifier: 
                F7:86:C9:75:C1:6F:A9:9D:EF:73:C4:4D:27:34:37:C3:D7:7C:8D:85
            X509v3 Authority Key Identifier: 
                keyid:F7:86:C9:75:C1:6F:A9:9D:EF:73:C4:4D:27:34:37:C3:D7:7C:8D:85
                DirName:/CN=Main Authority/emailAddress=auth@auth.com
                serial:01

            X509v3 Basic Constraints: 
                CA:TRUE
            X509v3 CRL Distribution Points: 

                Full Name:
                  URI:http://www.example.com/example_ca.crl

            X509v3 Key Usage: 
                Certificate Sign, CRL Sign
            X509v3 Subject Alternative Name: 
                email:auth@auth.com
    Signature Algorithm: sha1WithRSAEncryption
         36:37:5e:92:2c:d6:05:1c:5b:56:4f:3d:e0:9d:1f:98:38:66:
         8e:4d:1b:d5:c8:42:85:ca:ea:17:4b:30:c1:51:c6:ee:a4:f0:
         15:2e:4a:4b:c7:26:03:62:39:75:e1:24:77:3b:15:1f:17:89:
         fd:e7:72:ac:2b:1a:71:33:7d:9e:a8:2c:9b:57:80:25:d1:6f:
         bf:97:10:e1:ce:0e:1b:cd:e4:18:f9:97:b1:ba:f7:68:ec:81:
         2a:59:51:6c:33:3d:d5:63:d3:e2:20:57:b5:0c:44:96:3a:40:
         a5:d5:91:8a:97:1b:64:91:8e:d3:42:a5:5e:a2:c6:ed:c8:31:
         32:2a:fd:bd:e7:63:85:73:3d:9c:af:01:98:50:93:75:29:4d:
         be:43:4c:a6:ef:ab:ed:6c:c0:cf:c0:41:a1:c3:7b:6a:b8:68:
         29:a3:b9:4b:8b:6a:3a:4f:86:96:a8:a9:ff:34:38:06:f9:6f:
         d3:fa:13:57:b4:27:d4:73:2c:59:02:3a:68:40:d4:e4:7e:fa:
         7c:11:82:0b:0e:c2:38:94:68:ae:69:09:1f:6e:a2:d5:86:7f:
         2e:05:89:89:e6:77:06:8f:e8:95:8c:af:ff:bb:3f:31:d6:93:
         e6:9f:be:ae:d5:10:d9:12:f1:43:8c:fd:0c:59:b5:8f:de:d7:
         88:6f:d6:ea
-----BEGIN CERTIFICATE-----
MIID2jCCAsKgAwIBAgIBATANBgkqhkiG9w0BAQUFADA3MRcwFQYDVQQDEw5NYWlu
IEF1dGhvcml0eTEcMBoGCSqGSIb3DQEJARYNYXV0aEBhdXRoLmNvbTAeFw0xOTA2
MTIwODEwMTFaFw0yMDA2MTEwODEwMTFaMDcxFzAVBgNVBAMTDk1haW4gQXV0aG9y
aXR5MRwwGgYJKoZIhvcNAQkBFg1hdXRoQGF1dGguY29tMIIBIjANBgkqhkiG9w0B
AQEFAAOCAQ8AMIIBCgKCAQEAxpN5eJvrLZXfYVp9eqoug+uFWEG08eupuz1PydQ6
5Gbelk1Ypskdw26yn5R8PfSjX9j9UqMjq2d9ImZ9as7IFSKjoaIx0QCDj7xBC2T2
WT9sJXIZwaHhb+XumYvRzCI2qFAkdRC8W3HqFmAI1lfzq6GxDXXPGDn6eC7KLoH3
TrA27RmyPab3D7w791hLwYwaSs7loErYeVHp8RYLGtdQtZswwQVuJ+ACtVscL2ld
HwJRiNkUeF1rZcmj8/4XWQJfalHkKYsX4+P/h7qCfql4CQM0nr8rzerUqqn126SM
uIGSsaI0cRtKVkrq2sRXMapIJHWi2pHVkPfqQ3hc8JTA1wIDAQABo4HwMIHtMB0G
A1UdDgQWBBT3hsl1wW+pne9zxE0nNDfD13yNhTBfBgNVHSMEWDBWgBT3hsl1wW+p
ne9zxE0nNDfD13yNhaE7pDkwNzEXMBUGA1UEAxMOTWFpbiBBdXRob3JpdHkxHDAa
BgkqhkiG9w0BCQEWDWF1dGhAYXV0aC5jb22CAQEwDAYDVR0TBAUwAwEB/zA2BgNV
HR8ELzAtMCugKaAnhiVodHRwOi8vd3d3LmV4YW1wbGUuY29tL2V4YW1wbGVfY2Eu
Y3JsMAsGA1UdDwQEAwIBBjAYBgNVHREEETAPgQ1hdXRoQGF1dGguY29tMA0GCSqG
SIb3DQEBBQUAA4IBAQA2N16SLNYFHFtWTz3gnR+YOGaOTRvVyEKFyuoXSzDBUcbu
pPAVLkpLxyYDYjl14SR3OxUfF4n953KsKxpxM32eqCybV4Al0W+/lxDhzg4bzeQY
+Zexuvdo7IEqWVFsMz3VY9PiIFe1DESWOkCl1ZGKlxtkkY7TQqVeosbtyDEyKv29
52OFcz2crwGYUJN1KU2+Q0ym76vtbMDPwEGhw3tquGgpo7lLi2o6T4aWqKn/NDgG
+W/T+hNXtCfUcyxZAjpoQNTkfvp8EYILDsI4lGiuaQkfbqLVhn8uBYmJ5ncGj+iV
jK//uz8x1pPmn76u1RDZEvFDjP0MWbWP3teIb9bq
-----END CERTIFICATE-----
